; Function Attrs: mustprogress nofree norecurse nosync nounwind willreturn memory(argmem: readwrite) uwtable
define hidden void @_ZN10smt_params12setup_AUFLIAERK15static_features(ptr nocapture noundef nonnull writeonly align 8 dereferenceable(800) %this, ptr nocapture noundef nonnull readonly align 8 dereferenceable(792) %st) local_unnamed_addr #5 align 2 {
entry:
  %m_num_quantifiers_with_patterns = getelementptr inbounds i8, ptr %st, i64 420
  %0 = load i32, ptr %m_num_quantifiers_with_patterns, align 4
  %cmp = icmp eq i32 %0, 0
  %cond = select i1 %cmp, i32 5, i32 7
  %conv = sitofp i32 %cond to double
  %m_qi_eager_threshold = getelementptr inbounds i8, ptr %this, i64 168
  store double %conv, ptr %m_qi_eager_threshold, align 8
  ret void
}